target datalayout = "e-m:e-p270:32:32-p271:32:32-p272:64:64-i64:64-i128:128-f80:128-n8:16:32:64-S128"
target triple = "x86_64-pc-linux-gnu"

%struct.HLSAudioSetupInfo = type { i32, i32, i16, i8, i8, [10 x i8] }
%struct.GetBitContext = type { ptr, ptr, i32, i32, i32 }
%struct.AVStream = type { ptr, i32, i32, ptr, ptr, %struct.AVRational, i64, i64, i64, i32, i32, %struct.AVRational, ptr, %struct.AVRational, %struct.AVPacket, i32, %struct.AVRational, i32 }
%struct.AVPacket = type { ptr, i64, i64, ptr, i32, i32, i32, ptr, i32, i64, i64, ptr, ptr, %struct.AVRational }
%struct.AVRational = type { i32, i32 }
%struct.AVCodecParameters = type { i32, i32, i32, ptr, i32, ptr, i32, i32, i64, i32, i32, i32, i32, i32, i32, %struct.AVRational, %struct.AVRational, i32, i32, i32, i32, i32, i32, i32, %struct.AVChannelLayout, i32, i32, i32, i32, i32, i32 }
%struct.AVChannelLayout = type { i32, i32, %union.anon, ptr }
%union.anon = type { i64 }
%struct.AC3HeaderInfo = type { i16, i16, i8, i8, i8, i8, i8, i8, i32, i32, i32, i16, i32, i32, i8, i16, i32, i8, i16, i64, i8 }

@eac3_sample_rate_tab = internal constant [4 x i32] [i32 48000, i32 44100, i32 32000, i32 0], align 16
@ff_ac3_channel_layout_tab = external constant [8 x i16], align 16

; Function Attrs: alwaysinline nounwind willreturn memory(none) uwtable
define internal i32 @av_bswap32(i32 noundef %0) #5 {
  %2 = alloca i32, align 4
  store i32 %0, ptr %2, align 4, !tbaa !24
  %3 = load i32, ptr %2, align 4, !tbaa !24
  %4 = shl i32 %3, 8
  %5 = and i32 %4, 65280
  %6 = load i32, ptr %2, align 4, !tbaa !24
  %7 = lshr i32 %6, 8
  %8 = and i32 %7, 255
  %9 = or i32 %5, %8
  %10 = shl i32 %9, 16
  %11 = load i32, ptr %2, align 4, !tbaa !24
  %12 = lshr i32 %11, 16
  %13 = shl i32 %12, 8
  %14 = and i32 %13, 65280
  %15 = load i32, ptr %2, align 4, !tbaa !24
  %16 = lshr i32 %15, 16
  %17 = lshr i32 %16, 8
  %18 = and i32 %17, 255
  %19 = or i32 %14, %18
  %20 = or i32 %10, %19
  ret i32 %20
}

; Function Attrs: inlinehint nounwind uwtable
define internal i32 @init_get_bits(ptr noundef %0, ptr noundef %1, i32 noundef %2) #4 {
  %4 = alloca ptr, align 8
  %5 = alloca ptr, align 8
  %6 = alloca i32, align 4
  %7 = alloca i32, align 4
  %8 = alloca i32, align 4
  store ptr %0, ptr %4, align 8, !tbaa !47
  store ptr %1, ptr %5, align 8, !tbaa !9
  store i32 %2, ptr %6, align 4, !tbaa !24
  call void @llvm.lifetime.start.p0(i64 4, ptr %7) #7
  call void @llvm.lifetime.start.p0(i64 4, ptr %8) #7
  store i32 0, ptr %8, align 4, !tbaa !24
  %9 = load i32, ptr %6, align 4, !tbaa !24
  %10 = icmp sge i32 %9, 2147483135
  br i1 %10, label %17, label %11

11:                                               ; preds = %3
  %12 = load i32, ptr %6, align 4, !tbaa !24
  %13 = icmp slt i32 %12, 0
  br i1 %13, label %17, label %14

14:                                               ; preds = %11
  %15 = load ptr, ptr %5, align 8, !tbaa !9
  %16 = icmp ne ptr %15, null
  br i1 %16, label %18, label %17

17:                                               ; preds = %14, %11, %3
  store i32 0, ptr %6, align 4, !tbaa !24
  store ptr null, ptr %5, align 8, !tbaa !9
  store i32 -1094995529, ptr %8, align 4, !tbaa !24
  br label %18

18:                                               ; preds = %17, %14
  %19 = load i32, ptr %6, align 4, !tbaa !24
  %20 = add nsw i32 %19, 7
  %21 = ashr i32 %20, 3
  store i32 %21, ptr %7, align 4, !tbaa !24
  %22 = load ptr, ptr %5, align 8, !tbaa !9
  %23 = load ptr, ptr %4, align 8, !tbaa !47
  %24 = getelementptr inbounds nuw %struct.GetBitContext, ptr %23, i32 0, i32 0
  store ptr %22, ptr %24, align 8, !tbaa !52
  %25 = load i32, ptr %6, align 4, !tbaa !24
  %26 = load ptr, ptr %4, align 8, !tbaa !47
  %27 = getelementptr inbounds nuw %struct.GetBitContext, ptr %26, i32 0, i32 3
  store i32 %25, ptr %27, align 4, !tbaa !73
  %28 = load i32, ptr %6, align 4, !tbaa !24
  %29 = add nsw i32 %28, 8
  %30 = load ptr, ptr %4, align 8, !tbaa !47
  %31 = getelementptr inbounds nuw %struct.GetBitContext, ptr %30, i32 0, i32 4
  store i32 %29, ptr %31, align 8, !tbaa !51
  %32 = load ptr, ptr %5, align 8, !tbaa !9
  %33 = load i32, ptr %7, align 4, !tbaa !24
  %34 = sext i32 %33 to i64
  %35 = getelementptr inbounds i8, ptr %32, i64 %34
  %36 = load ptr, ptr %4, align 8, !tbaa !47
  %37 = getelementptr inbounds nuw %struct.GetBitContext, ptr %36, i32 0, i32 1
  store ptr %35, ptr %37, align 8, !tbaa !74
  %38 = load ptr, ptr %4, align 8, !tbaa !47
  %39 = getelementptr inbounds nuw %struct.GetBitContext, ptr %38, i32 0, i32 2
  store i32 0, ptr %39, align 8, !tbaa !49
  %40 = load i32, ptr %8, align 4, !tbaa !24
  call void @llvm.lifetime.end.p0(i64 4, ptr %8) #7
  call void @llvm.lifetime.end.p0(i64 4, ptr %7) #7
  ret i32 %40
}

; Function Attrs: inlinehint nounwind uwtable
define internal void @skip_bits(ptr noundef %0, i32 noundef %1) #4 {
  %3 = alloca ptr, align 8
  %4 = alloca i32, align 4
  %5 = alloca i32, align 4
  %6 = alloca i32, align 4
  store ptr %0, ptr %3, align 8, !tbaa !47
  store i32 %1, ptr %4, align 4, !tbaa !24
  call void @llvm.lifetime.start.p0(i64 4, ptr %5) #7
  %7 = load ptr, ptr %3, align 8, !tbaa !47
  %8 = getelementptr inbounds nuw %struct.GetBitContext, ptr %7, i32 0, i32 2
  %9 = load i32, ptr %8, align 8, !tbaa !49
  store i32 %9, ptr %5, align 4, !tbaa !24
  call void @llvm.lifetime.start.p0(i64 4, ptr %6) #7
  %10 = load ptr, ptr %3, align 8, !tbaa !47
  %11 = getelementptr inbounds nuw %struct.GetBitContext, ptr %10, i32 0, i32 4
  %12 = load i32, ptr %11, align 8, !tbaa !51
  store i32 %12, ptr %6, align 4, !tbaa !24
  %13 = load i32, ptr %6, align 4, !tbaa !24
  %14 = load i32, ptr %5, align 4, !tbaa !24
  %15 = load i32, ptr %4, align 4, !tbaa !24
  %16 = add i32 %14, %15
  %17 = icmp ugt i32 %13, %16
  br i1 %17, label %18, label %22

18:                                               ; preds = %2
  %19 = load i32, ptr %5, align 4, !tbaa !24
  %20 = load i32, ptr %4, align 4, !tbaa !24
  %21 = add i32 %19, %20
  br label %24

22:                                               ; preds = %2
  %23 = load i32, ptr %6, align 4, !tbaa !24
  br label %24

24:                                               ; preds = %22, %18
  %25 = phi i32 [ %21, %18 ], [ %23, %22 ]
  store i32 %25, ptr %5, align 4, !tbaa !24
  %26 = load i32, ptr %5, align 4, !tbaa !24
  %27 = load ptr, ptr %3, align 8, !tbaa !47
  %28 = getelementptr inbounds nuw %struct.GetBitContext, ptr %27, i32 0, i32 2
  store i32 %26, ptr %28, align 8, !tbaa !49
  call void @llvm.lifetime.end.p0(i64 4, ptr %6) #7
  call void @llvm.lifetime.end.p0(i64 4, ptr %5) #7
  ret void
}

; Function Attrs: inlinehint nounwind uwtable
define internal i32 @get_bits(ptr noundef %0, i32 noundef %1) #4 {
  %3 = alloca ptr, align 8
  %4 = alloca i32, align 4
  %5 = alloca i32, align 4
  %6 = alloca i32, align 4
  %7 = alloca i32, align 4
  %8 = alloca i32, align 4
  store ptr %0, ptr %3, align 8, !tbaa !47
  store i32 %1, ptr %4, align 4, !tbaa !24
  call void @llvm.lifetime.start.p0(i64 4, ptr %5) #7
  call void @llvm.lifetime.start.p0(i64 4, ptr %6) #7
  %9 = load ptr, ptr %3, align 8, !tbaa !47
  %10 = getelementptr inbounds nuw %struct.GetBitContext, ptr %9, i32 0, i32 2
  %11 = load i32, ptr %10, align 8, !tbaa !49
  store i32 %11, ptr %6, align 4, !tbaa !24
  call void @llvm.lifetime.start.p0(i64 4, ptr %7) #7
  call void @llvm.lifetime.start.p0(i64 4, ptr %8) #7
  %12 = load ptr, ptr %3, align 8, !tbaa !47
  %13 = getelementptr inbounds nuw %struct.GetBitContext, ptr %12, i32 0, i32 4
  %14 = load i32, ptr %13, align 8, !tbaa !51
  store i32 %14, ptr %8, align 4, !tbaa !24
  %15 = load ptr, ptr %3, align 8, !tbaa !47
  %16 = getelementptr inbounds nuw %struct.GetBitContext, ptr %15, i32 0, i32 0
  %17 = load ptr, ptr %16, align 8, !tbaa !52
  %18 = load i32, ptr %6, align 4, !tbaa !24
  %19 = lshr i32 %18, 3
  %20 = zext i32 %19 to i64
  %21 = getelementptr inbounds nuw i8, ptr %17, i64 %20
  %22 = load i32, ptr %21, align 1, !tbaa !13
  %23 = call i32 @av_bswap32(i32 noundef %22) #8
  %24 = load i32, ptr %6, align 4, !tbaa !24
  %25 = and i32 %24, 7
  %26 = shl i32 %23, %25
  %27 = lshr i32 %26, 0
  store i32 %27, ptr %7, align 4, !tbaa !24
  %28 = load i32, ptr %7, align 4, !tbaa !24
  %29 = load i32, ptr %4, align 4, !tbaa !24
  %30 = sub nsw i32 32, %29
  %31 = lshr i32 %28, %30
  store i32 %31, ptr %5, align 4, !tbaa !24
  %32 = load i32, ptr %8, align 4, !tbaa !24
  %33 = load i32, ptr %6, align 4, !tbaa !24
  %34 = load i32, ptr %4, align 4, !tbaa !24
  %35 = add i32 %33, %34
  %36 = icmp ugt i32 %32, %35
  br i1 %36, label %37, label %41

37:                                               ; preds = %2
  %38 = load i32, ptr %6, align 4, !tbaa !24
  %39 = load i32, ptr %4, align 4, !tbaa !24
  %40 = add i32 %38, %39
  br label %43

41:                                               ; preds = %2
  %42 = load i32, ptr %8, align 4, !tbaa !24
  br label %43

43:                                               ; preds = %41, %37
  %44 = phi i32 [ %40, %37 ], [ %42, %41 ]
  store i32 %44, ptr %6, align 4, !tbaa !24
  %45 = load i32, ptr %6, align 4, !tbaa !24
  %46 = load ptr, ptr %3, align 8, !tbaa !47
  %47 = getelementptr inbounds nuw %struct.GetBitContext, ptr %46, i32 0, i32 2
  store i32 %45, ptr %47, align 8, !tbaa !49
  %48 = load i32, ptr %5, align 4, !tbaa !24
  call void @llvm.lifetime.end.p0(i64 4, ptr %8) #7
  call void @llvm.lifetime.end.p0(i64 4, ptr %7) #7
  call void @llvm.lifetime.end.p0(i64 4, ptr %6) #7
  call void @llvm.lifetime.end.p0(i64 4, ptr %5) #7
  ret i32 %48
}

; Function Attrs: inlinehint nounwind uwtable
define internal i32 @init_get_bits8(ptr noundef %0, ptr noundef %1, i32 noundef %2) #4 {
  %4 = alloca ptr, align 8
  %5 = alloca ptr, align 8
  %6 = alloca i32, align 4
  store ptr %0, ptr %4, align 8, !tbaa !47
  store ptr %1, ptr %5, align 8, !tbaa !9
  store i32 %2, ptr %6, align 4, !tbaa !24
  %7 = load i32, ptr %6, align 4, !tbaa !24
  %8 = icmp sgt i32 %7, 268435455
  br i1 %8, label %12, label %9

9:                                                ; preds = %3
  %10 = load i32, ptr %6, align 4, !tbaa !24
  %11 = icmp slt i32 %10, 0
  br i1 %11, label %12, label %13

12:                                               ; preds = %9, %3
  store i32 -1, ptr %6, align 4, !tbaa !24
  br label %13

13:                                               ; preds = %12, %9
  %14 = load ptr, ptr %4, align 8, !tbaa !47
  %15 = load ptr, ptr %5, align 8, !tbaa !9
  %16 = load i32, ptr %6, align 4, !tbaa !24
  %17 = mul nsw i32 %16, 8
  %18 = call i32 @init_get_bits(ptr noundef %14, ptr noundef %15, i32 noundef %17)
  ret i32 %18
}

; Function Attrs: nounwind uwtable
define i32 @ff_hls_senc_parse_audio_setup_info(ptr noundef %0, ptr noundef %1) #0 {
  %3 = alloca i32, align 4
  %4 = alloca ptr, align 8
  %5 = alloca ptr, align 8
  %6 = alloca i32, align 4
  %7 = alloca i32, align 4
  %8 = alloca ptr, align 8
  %9 = alloca %struct.GetBitContext, align 8
  %10 = alloca i64, align 8
  %11 = alloca i32, align 4
  %12 = alloca i32, align 4
  %13 = alloca i32, align 4
  %14 = alloca i32, align 4
  store ptr %0, ptr %4, align 8, !tbaa !22
  store ptr %1, ptr %5, align 8, !tbaa !4
  call void @llvm.lifetime.start.p0(i64 4, ptr %6) #7
  store i32 0, ptr %6, align 4, !tbaa !24
  %15 = load ptr, ptr %5, align 8, !tbaa !4
  %16 = getelementptr inbounds nuw %struct.HLSAudioSetupInfo, ptr %15, i32 0, i32 1
  %17 = load i32, ptr %16, align 4, !tbaa !14
  %18 = load ptr, ptr %4, align 8, !tbaa !22
  %19 = getelementptr inbounds nuw %struct.AVStream, ptr %18, i32 0, i32 3
  %20 = load ptr, ptr %19, align 8, !tbaa !25
  %21 = getelementptr inbounds nuw %struct.AVCodecParameters, ptr %20, i32 0, i32 2
  store i32 %17, ptr %21, align 8, !tbaa !34
  %22 = load ptr, ptr %4, align 8, !tbaa !22
  %23 = getelementptr inbounds nuw %struct.AVStream, ptr %22, i32 0, i32 3
  %24 = load ptr, ptr %23, align 8, !tbaa !25
  %25 = getelementptr inbounds nuw %struct.AVCodecParameters, ptr %24, i32 0, i32 1
  %26 = load i32, ptr %25, align 4, !tbaa !37
  %27 = icmp eq i32 %26, 86018
  br i1 %27, label %28, label %29

28:                                               ; preds = %2
  store i32 0, ptr %3, align 4
  store i32 1, ptr %7, align 4
  br label %155

29:                                               ; preds = %2
  %30 = load ptr, ptr %4, align 8, !tbaa !22
  %31 = getelementptr inbounds nuw %struct.AVStream, ptr %30, i32 0, i32 3
  %32 = load ptr, ptr %31, align 8, !tbaa !25
  %33 = getelementptr inbounds nuw %struct.AVCodecParameters, ptr %32, i32 0, i32 1
  %34 = load i32, ptr %33, align 4, !tbaa !37
  %35 = icmp ne i32 %34, 86019
  br i1 %35, label %36, label %44

36:                                               ; preds = %29
  %37 = load ptr, ptr %4, align 8, !tbaa !22
  %38 = getelementptr inbounds nuw %struct.AVStream, ptr %37, i32 0, i32 3
  %39 = load ptr, ptr %38, align 8, !tbaa !25
  %40 = getelementptr inbounds nuw %struct.AVCodecParameters, ptr %39, i32 0, i32 1
  %41 = load i32, ptr %40, align 4, !tbaa !37
  %42 = icmp ne i32 %41, 86056
  br i1 %42, label %43, label %44

43:                                               ; preds = %36
  store i32 -1094995529, ptr %3, align 4
  store i32 1, ptr %7, align 4
  br label %155

44:                                               ; preds = %36, %29
  %45 = load ptr, ptr %4, align 8, !tbaa !22
  %46 = getelementptr inbounds nuw %struct.AVStream, ptr %45, i32 0, i32 3
  %47 = load ptr, ptr %46, align 8, !tbaa !25
  %48 = getelementptr inbounds nuw %struct.AVCodecParameters, ptr %47, i32 0, i32 1
  %49 = load i32, ptr %48, align 4, !tbaa !37
  %50 = icmp eq i32 %49, 86019
  br i1 %50, label %51, label %98

51:                                               ; preds = %44
  call void @llvm.lifetime.start.p0(i64 8, ptr %8) #7
  store ptr null, ptr %8, align 8, !tbaa !38
  %52 = load ptr, ptr %5, align 8, !tbaa !4
  %53 = getelementptr inbounds nuw %struct.HLSAudioSetupInfo, ptr %52, i32 0, i32 5
  %54 = getelementptr inbounds [10 x i8], ptr %53, i64 0, i64 0
  %55 = load ptr, ptr %5, align 8, !tbaa !4
  %56 = getelementptr inbounds nuw %struct.HLSAudioSetupInfo, ptr %55, i32 0, i32 4
  %57 = load i8, ptr %56, align 1, !tbaa !21
  %58 = zext i8 %57 to i64
  %59 = call i32 @avpriv_ac3_parse_header(ptr noundef %8, ptr noundef %54, i64 noundef %58)
  store i32 %59, ptr %6, align 4, !tbaa !24
  %60 = load i32, ptr %6, align 4, !tbaa !24
  %61 = icmp slt i32 %60, 0
  br i1 %61, label %62, label %65

62:                                               ; preds = %51
  %63 = load ptr, ptr %8, align 8, !tbaa !38
  call void @av_free(ptr noundef %63)
  %64 = load i32, ptr %6, align 4, !tbaa !24
  store i32 %64, ptr %3, align 4
  store i32 1, ptr %7, align 4
  br label %95

65:                                               ; preds = %51
  %66 = load ptr, ptr %8, align 8, !tbaa !38
  %67 = getelementptr inbounds nuw %struct.AC3HeaderInfo, ptr %66, i32 0, i32 15
  %68 = load i16, ptr %67, align 2, !tbaa !40
  %69 = zext i16 %68 to i32
  %70 = load ptr, ptr %4, align 8, !tbaa !22
  %71 = getelementptr inbounds nuw %struct.AVStream, ptr %70, i32 0, i32 3
  %72 = load ptr, ptr %71, align 8, !tbaa !25
  %73 = getelementptr inbounds nuw %struct.AVCodecParameters, ptr %72, i32 0, i32 25
  store i32 %69, ptr %73, align 8, !tbaa !42
  %74 = load ptr, ptr %4, align 8, !tbaa !22
  %75 = getelementptr inbounds nuw %struct.AVStream, ptr %74, i32 0, i32 3
  %76 = load ptr, ptr %75, align 8, !tbaa !25
  %77 = getelementptr inbounds nuw %struct.AVCodecParameters, ptr %76, i32 0, i32 24
  call void @av_channel_layout_uninit(ptr noundef %77)
  %78 = load ptr, ptr %4, align 8, !tbaa !22
  %79 = getelementptr inbounds nuw %struct.AVStream, ptr %78, i32 0, i32 3
  %80 = load ptr, ptr %79, align 8, !tbaa !25
  %81 = getelementptr inbounds nuw %struct.AVCodecParameters, ptr %80, i32 0, i32 24
  %82 = load ptr, ptr %8, align 8, !tbaa !38
  %83 = getelementptr inbounds nuw %struct.AC3HeaderInfo, ptr %82, i32 0, i32 19
  %84 = load i64, ptr %83, align 8, !tbaa !43
  %85 = call i32 @av_channel_layout_from_mask(ptr noundef %81, i64 noundef %84)
  %86 = load ptr, ptr %8, align 8, !tbaa !38
  %87 = getelementptr inbounds nuw %struct.AC3HeaderInfo, ptr %86, i32 0, i32 16
  %88 = load i32, ptr %87, align 8, !tbaa !44
  %89 = zext i32 %88 to i64
  %90 = load ptr, ptr %4, align 8, !tbaa !22
  %91 = getelementptr inbounds nuw %struct.AVStream, ptr %90, i32 0, i32 3
  %92 = load ptr, ptr %91, align 8, !tbaa !25
  %93 = getelementptr inbounds nuw %struct.AVCodecParameters, ptr %92, i32 0, i32 8
  store i64 %89, ptr %93, align 8, !tbaa !45
  %94 = load ptr, ptr %8, align 8, !tbaa !38
  call void @av_free(ptr noundef %94)
  store i32 0, ptr %7, align 4
  br label %95

95:                                               ; preds = %65, %62
  call void @llvm.lifetime.end.p0(i64 8, ptr %8) #7
  %96 = load i32, ptr %7, align 4
  switch i32 %96, label %155 [
    i32 0, label %97
  ]

97:                                               ; preds = %95
  br label %154

98:                                               ; preds = %44
  call void @llvm.lifetime.start.p0(i64 32, ptr %9) #7
  call void @llvm.lifetime.start.p0(i64 8, ptr %10) #7
  call void @llvm.lifetime.start.p0(i64 4, ptr %11) #7
  call void @llvm.lifetime.start.p0(i64 4, ptr %12) #7
  call void @llvm.lifetime.start.p0(i64 4, ptr %13) #7
  call void @llvm.lifetime.start.p0(i64 4, ptr %14) #7
  %99 = load ptr, ptr %5, align 8, !tbaa !4
  %100 = getelementptr inbounds nuw %struct.HLSAudioSetupInfo, ptr %99, i32 0, i32 5
  %101 = getelementptr inbounds [10 x i8], ptr %100, i64 0, i64 0
  %102 = load ptr, ptr %5, align 8, !tbaa !4
  %103 = getelementptr inbounds nuw %struct.HLSAudioSetupInfo, ptr %102, i32 0, i32 4
  %104 = load i8, ptr %103, align 1, !tbaa !21
  %105 = zext i8 %104 to i32
  %106 = call i32 @init_get_bits8(ptr noundef %9, ptr noundef %101, i32 noundef %105)
  store i32 %106, ptr %6, align 4, !tbaa !24
  %107 = load i32, ptr %6, align 4, !tbaa !24
  %108 = icmp slt i32 %107, 0
  br i1 %108, label %109, label %110

109:                                              ; preds = %98
  store i32 -1094995529, ptr %3, align 4
  store i32 1, ptr %7, align 4
  br label %151

110:                                              ; preds = %98
  %111 = call i32 @get_bits(ptr noundef %9, i32 noundef 13)
  store i32 %111, ptr %11, align 4, !tbaa !24
  call void @skip_bits(ptr noundef %9, i32 noundef 3)
  %112 = call i32 @get_bits(ptr noundef %9, i32 noundef 2)
  store i32 %112, ptr %12, align 4, !tbaa !24
  call void @skip_bits(ptr noundef %9, i32 noundef 10)
  %113 = call i32 @get_bits(ptr noundef %9, i32 noundef 3)
  store i32 %113, ptr %13, align 4, !tbaa !24
  %114 = call i32 @get_bits(ptr noundef %9, i32 noundef 1)
  store i32 %114, ptr %14, align 4, !tbaa !24
  %115 = load i32, ptr %12, align 4, !tbaa !24
  %116 = sext i32 %115 to i64
  %117 = getelementptr inbounds [4 x i32], ptr @eac3_sample_rate_tab, i64 0, i64 %116
  %118 = load i32, ptr %117, align 4, !tbaa !24
  %119 = load ptr, ptr %4, align 8, !tbaa !22
  %120 = getelementptr inbounds nuw %struct.AVStream, ptr %119, i32 0, i32 3
  %121 = load ptr, ptr %120, align 8, !tbaa !25
  %122 = getelementptr inbounds nuw %struct.AVCodecParameters, ptr %121, i32 0, i32 25
  store i32 %118, ptr %122, align 8, !tbaa !42
  %123 = load i32, ptr %13, align 4, !tbaa !24
  %124 = sext i32 %123 to i64
  %125 = getelementptr inbounds [8 x i16], ptr @ff_ac3_channel_layout_tab, i64 0, i64 %124
  %126 = load i16, ptr %125, align 2, !tbaa !46
  %127 = zext i16 %126 to i64
  store i64 %127, ptr %10, align 8, !tbaa !11
  %128 = load i32, ptr %14, align 4, !tbaa !24
  %129 = icmp ne i32 %128, 0
  br i1 %129, label %130, label %133

130:                                              ; preds = %110
  %131 = load i64, ptr %10, align 8, !tbaa !11
  %132 = or i64 %131, 8
  store i64 %132, ptr %10, align 8, !tbaa !11
  br label %133

133:                                              ; preds = %130, %110
  %134 = load ptr, ptr %4, align 8, !tbaa !22
  %135 = getelementptr inbounds nuw %struct.AVStream, ptr %134, i32 0, i32 3
  %136 = load ptr, ptr %135, align 8, !tbaa !25
  %137 = getelementptr inbounds nuw %struct.AVCodecParameters, ptr %136, i32 0, i32 24
  call void @av_channel_layout_uninit(ptr noundef %137)
  %138 = load ptr, ptr %4, align 8, !tbaa !22
  %139 = getelementptr inbounds nuw %struct.AVStream, ptr %138, i32 0, i32 3
  %140 = load ptr, ptr %139, align 8, !tbaa !25
  %141 = getelementptr inbounds nuw %struct.AVCodecParameters, ptr %140, i32 0, i32 24
  %142 = load i64, ptr %10, align 8, !tbaa !11
  %143 = call i32 @av_channel_layout_from_mask(ptr noundef %141, i64 noundef %142)
  %144 = load i32, ptr %11, align 4, !tbaa !24
  %145 = mul nsw i32 %144, 1000
  %146 = sext i32 %145 to i64
  %147 = load ptr, ptr %4, align 8, !tbaa !22
  %148 = getelementptr inbounds nuw %struct.AVStream, ptr %147, i32 0, i32 3
  %149 = load ptr, ptr %148, align 8, !tbaa !25
  %150 = getelementptr inbounds nuw %struct.AVCodecParameters, ptr %149, i32 0, i32 8
  store i64 %146, ptr %150, align 8, !tbaa !45
  store i32 0, ptr %7, align 4
  br label %151

151:                                              ; preds = %133, %109
  call void @llvm.lifetime.end.p0(i64 4, ptr %14) #7
  call void @llvm.lifetime.end.p0(i64 4, ptr %13) #7
  call void @llvm.lifetime.end.p0(i64 4, ptr %12) #7
  call void @llvm.lifetime.end.p0(i64 4, ptr %11) #7
  call void @llvm.lifetime.end.p0(i64 8, ptr %10) #7
  call void @llvm.lifetime.end.p0(i64 32, ptr %9) #7
  %152 = load i32, ptr %7, align 4
  switch i32 %152, label %155 [
    i32 0, label %153
  ]

153:                                              ; preds = %151
  br label %154

154:                                              ; preds = %153, %97
  store i32 0, ptr %3, align 4
  store i32 1, ptr %7, align 4
  br label %155

155:                                              ; preds = %154, %151, %95, %43, %28
  call void @llvm.lifetime.end.p0(i64 4, ptr %6) #7
  %156 = load i32, ptr %3, align 4
  ret i32 %156
}