; Function Attrs: nounwind uwtable
define range(i32 -2147483648, 1) i32 @ff_hls_senc_parse_audio_setup_info(ptr noundef readonly captures(none) %0, ptr noundef %1) local_unnamed_addr #2 {
  %3 = alloca ptr, align 8
  %4 = getelementptr inbounds nuw i8, ptr %1, i64 4
  %5 = load i32, ptr %4, align 4, !tbaa !7
  %6 = getelementptr inbounds nuw i8, ptr %0, i64 16
  %7 = load ptr, ptr %6, align 8, !tbaa !15
  %8 = getelementptr inbounds nuw i8, ptr %7, i64 8
  store i32 %5, ptr %8, align 8, !tbaa !27
  %9 = getelementptr inbounds nuw i8, ptr %7, i64 4
  %10 = load i32, ptr %9, align 4, !tbaa !30
  switch i32 %10, label %11 [
    i32 86018, label %98
    i32 86019, label %12
    i32 86056, label %39
  ]

11:                                               ; preds = %2
  br label %98

12:                                               ; preds = %2
  call void @llvm.lifetime.start.p0(i64 8, ptr nonnull %3) #6
  store ptr null, ptr %3, align 8, !tbaa !31
  %13 = getelementptr inbounds nuw i8, ptr %1, i64 12
  %14 = getelementptr inbounds nuw i8, ptr %1, i64 11
  %15 = load i8, ptr %14, align 1, !tbaa !14
  %16 = zext i8 %15 to i64
  %17 = call i32 @avpriv_ac3_parse_header(ptr noundef nonnull %3, ptr noundef nonnull %13, i64 noundef %16) #6
  %18 = icmp sgt i32 %17, -1
  %19 = load ptr, ptr %3, align 8, !tbaa !31
  br i1 %18, label %.thread, label %38

.thread:                                          ; preds = %12
  %20 = getelementptr inbounds nuw i8, ptr %19, i64 38
  %21 = load i16, ptr %20, align 2, !tbaa !33
  %22 = zext i16 %21 to i32
  %23 = load ptr, ptr %6, align 8, !tbaa !15
  %24 = getelementptr inbounds nuw i8, ptr %23, i64 152
  store i32 %22, ptr %24, align 8, !tbaa !35
  %25 = getelementptr inbounds nuw i8, ptr %23, i64 128
  call void @av_channel_layout_uninit(ptr noundef nonnull %25) #6
  %26 = load ptr, ptr %6, align 8, !tbaa !15
  %27 = getelementptr inbounds nuw i8, ptr %26, i64 128
  %28 = load ptr, ptr %3, align 8, !tbaa !31
  %29 = getelementptr inbounds nuw i8, ptr %28, i64 48
  %30 = load i64, ptr %29, align 8, !tbaa !36
  %31 = call i32 @av_channel_layout_from_mask(ptr noundef nonnull %27, i64 noundef %30) #6
  %32 = load ptr, ptr %3, align 8, !tbaa !31
  %33 = getelementptr inbounds nuw i8, ptr %32, i64 40
  %34 = load i32, ptr %33, align 8, !tbaa !37
  %35 = zext i32 %34 to i64
  %36 = load ptr, ptr %6, align 8, !tbaa !15
  %37 = getelementptr inbounds nuw i8, ptr %36, i64 48
  store i64 %35, ptr %37, align 8, !tbaa !38
  call void @av_free(ptr noundef %32) #6
  call void @llvm.lifetime.end.p0(i64 8, ptr nonnull %3) #6
  br label %98

38:                                               ; preds = %12
  call void @av_free(ptr noundef %19) #6
  call void @llvm.lifetime.end.p0(i64 8, ptr nonnull %3) #6
  br label %98

39:                                               ; preds = %2
  %40 = getelementptr inbounds nuw i8, ptr %1, i64 12
  %41 = getelementptr inbounds nuw i8, ptr %1, i64 11
  %42 = load i8, ptr %41, align 1, !tbaa !14
  %43 = zext i8 %42 to i32
  %44 = shl nuw nsw i32 %43, 3
  %45 = add nuw nsw i32 %44, 8
  %46 = load i32, ptr %40, align 1, !tbaa !4
  %47 = tail call i32 @llvm.bswap.i32(i32 %46)
  %48 = lshr i32 %47, 19
  %49 = tail call i32 @llvm.umin.i32(i32 %45, i32 13)
  %50 = add nuw nsw i32 %49, 3
  %51 = tail call i32 @llvm.umin.i32(i32 %45, i32 %50)
  %52 = lshr i32 %51, 3
  %53 = zext nneg i32 %52 to i64
  %54 = getelementptr inbounds nuw i8, ptr %40, i64 %53
  %55 = load i32, ptr %54, align 1, !tbaa !4
  %56 = tail call i32 @llvm.bswap.i32(i32 %55)
  %57 = and i32 %51, 7
  %58 = shl i32 %56, %57
  %59 = lshr i32 %58, 30
  %60 = add nuw nsw i32 %51, 2
  %61 = tail call i32 @llvm.umin.i32(i32 %45, i32 %60)
  %62 = add nuw nsw i32 %61, 10
  %63 = tail call i32 @llvm.umin.i32(i32 %45, i32 %62)
  %64 = lshr i32 %63, 3
  %65 = zext nneg i32 %64 to i64
  %66 = getelementptr inbounds nuw i8, ptr %40, i64 %65
  %67 = load i32, ptr %66, align 1, !tbaa !4
  %68 = tail call i32 @llvm.bswap.i32(i32 %67)
  %69 = and i32 %63, 7
  %70 = shl i32 %68, %69
  %71 = lshr i32 %70, 29
  %72 = add nuw nsw i32 %63, 3
  %73 = tail call i32 @llvm.umin.i32(i32 %45, i32 %72)
  %74 = lshr i32 %73, 3
  %75 = zext nneg i32 %74 to i64
  %76 = getelementptr inbounds nuw i8, ptr %40, i64 %75
  %77 = load i32, ptr %76, align 1, !tbaa !4
  %78 = tail call i32 @llvm.bswap.i32(i32 %77)
  %79 = and i32 %73, 7
  %80 = shl i32 %78, %79
  %81 = zext nneg i32 %59 to i64
  %82 = getelementptr inbounds nuw [4 x i32], ptr @eac3_sample_rate_tab, i64 0, i64 %81
  %83 = load i32, ptr %82, align 4, !tbaa !39
  %84 = getelementptr inbounds nuw i8, ptr %7, i64 152
  store i32 %83, ptr %84, align 8, !tbaa !35
  %85 = zext nneg i32 %71 to i64
  %86 = getelementptr inbounds nuw [8 x i16], ptr @ff_ac3_channel_layout_tab, i64 0, i64 %85
  %87 = load i16, ptr %86, align 2, !tbaa !40
  %88 = zext i16 %87 to i64
  %89 = or i64 %88, 8
  %.not3549 = icmp slt i32 %80, 0
  %spec.select = select i1 %.not3549, i64 %89, i64 %88
  %90 = getelementptr inbounds nuw i8, ptr %7, i64 128
  tail call void @av_channel_layout_uninit(ptr noundef nonnull %90) #6
  %91 = load ptr, ptr %6, align 8, !tbaa !15
  %92 = getelementptr inbounds nuw i8, ptr %91, i64 128
  %93 = tail call i32 @av_channel_layout_from_mask(ptr noundef nonnull %92, i64 noundef %spec.select) #6
  %94 = mul nuw nsw i32 %48, 1000
  %95 = zext nneg i32 %94 to i64
  %96 = load ptr, ptr %6, align 8, !tbaa !15
  %97 = getelementptr inbounds nuw i8, ptr %96, i64 48
  store i64 %95, ptr %97, align 8, !tbaa !38
  br label %98

98:                                               ; preds = %2, %39, %.thread, %38, %11
  %.0 = phi i32 [ -1094995529, %11 ], [ %17, %38 ], [ 0, %2 ], [ 0, %.thread ], [ 0, %39 ]
  ret i32 %.0
}